target datalayout = "e-m:e-p270:32:32-p271:32:32-p272:64:64-i64:64-i128:128-f80:128-n8:16:32:64-S128"
target triple = "x86_64-pc-linux-gnu"

%struct.cli_bc_ctx = type { i8, i16, i32, ptr, ptr, i32, i32, ptr, ptr, ptr, i32, i32, i64, ptr, ptr, ptr, %struct.cli_bc_hooks, %struct.cli_exe_info, [64 x i32], [64 x i32], i32, ptr, ptr, i32, i32, i32, i32, ptr, i32, ptr, ptr, i32, i32, i32, i32, i32, i32, ptr, ptr, ptr, ptr, ptr, ptr, ptr, i32, i32, i32, i32, ptr, ptr, ptr, ptr, ptr, i32, i32, i32, i32, ptr, ptr, ptr, ptr, i32, i32, i32, ptr, i32, ptr, i32, i32, ptr, i32 }
%struct.cli_bc_hooks = type { ptr, ptr, ptr, ptr, ptr }
%struct.cli_exe_info = type { ptr, i32, i32, i16, i32, i32, %struct.cli_hashset, i32, i32, i32, i32, i32, i32, i32, i32, i32, %struct.pe_image_file_hdr, %union.anon, [16 x %struct.pe_image_data_dir] }
%struct.cli_hashset = type { ptr, ptr, ptr, i32, i32, i32, i32 }
%struct.pe_image_file_hdr = type { i32, i16, i16, i32, i32, i32, i16, i16 }
%union.anon = type { %struct.pe_image_optional_hdr64 }
%struct.pe_image_optional_hdr64 = type { i16, i8, i8, i32, i32, i32, i32, i32, i64, i32, i32, i16, i16, i16, i16, i16, i16, i32, i32, i32, i32, i16, i16, i64, i64, i64, i64, i32, i32 }
%struct.pe_image_data_dir = type { i32, i32 }

@.str.23 = private unnamed_addr constant [2 x i8] c"?\00", align 1

; Function Attrs: nounwind uwtable
define i32 @cli_bcapi_trace_scope(ptr noundef %0, ptr noundef %1, i32 noundef %2) #0 {
  %4 = alloca i32, align 4
  %5 = alloca ptr, align 8
  %6 = alloca ptr, align 8
  %7 = alloca i32, align 4
  store ptr %0, ptr %5, align 8
  store ptr %1, ptr %6, align 8
  store i32 %2, ptr %7, align 4
  %8 = load ptr, ptr %5, align 8
  %9 = getelementptr inbounds %struct.cli_bc_ctx, ptr %8, i32 0, i32 44
  %10 = load i32, ptr %9, align 8
  %11 = icmp ne i32 %10, 0
  %12 = xor i1 %11, true
  %13 = xor i1 %12, true
  %14 = xor i1 %13, true
  %15 = zext i1 %14 to i32
  %16 = sext i32 %15 to i64
  %17 = icmp ne i64 %16, 0
  br i1 %17, label %18, label %19

18:                                               ; preds = %3
  store i32 0, ptr %4, align 4
  br label %63

19:                                               ; preds = %3
  %20 = load ptr, ptr %5, align 8
  %21 = getelementptr inbounds %struct.cli_bc_ctx, ptr %20, i32 0, i32 43
  %22 = load ptr, ptr %21, align 8
  %23 = load ptr, ptr %6, align 8
  %24 = icmp ne ptr %22, %23
  br i1 %24, label %25, label %42

25:                                               ; preds = %19
  %26 = load ptr, ptr %6, align 8
  %27 = icmp ne ptr %26, null
  br i1 %27, label %28, label %30

28:                                               ; preds = %25
  %29 = load ptr, ptr %6, align 8
  br label %31

30:                                               ; preds = %25
  br label %31

31:                                               ; preds = %30, %28
  %32 = phi ptr [ %29, %28 ], [ @.str.23, %30 ]
  %33 = load ptr, ptr %5, align 8
  %34 = getelementptr inbounds %struct.cli_bc_ctx, ptr %33, i32 0, i32 43
  store ptr %32, ptr %34, align 8
  %35 = load i32, ptr %7, align 4
  %36 = load ptr, ptr %5, align 8
  %37 = getelementptr inbounds %struct.cli_bc_ctx, ptr %36, i32 0, i32 45
  store i32 %35, ptr %37, align 4
  %38 = load ptr, ptr %5, align 8
  %39 = getelementptr inbounds %struct.cli_bc_ctx, ptr %38, i32 0, i32 44
  %40 = load i32, ptr %39, align 8
  %41 = or i32 %40, 128
  store i32 %41, ptr %39, align 8
  br label %62

42:                                               ; preds = %19
  %43 = load ptr, ptr %5, align 8
  %44 = getelementptr inbounds %struct.cli_bc_ctx, ptr %43, i32 0, i32 44
  %45 = load i32, ptr %44, align 8
  %46 = icmp uge i32 %45, 3
  br i1 %46, label %47, label %61

47:                                               ; preds = %42
  %48 = load ptr, ptr %5, align 8
  %49 = getelementptr inbounds %struct.cli_bc_ctx, ptr %48, i32 0, i32 45
  %50 = load i32, ptr %49, align 4
  %51 = load i32, ptr %7, align 4
  %52 = icmp ne i32 %50, %51
  br i1 %52, label %53, label %61

53:                                               ; preds = %47
  %54 = load i32, ptr %7, align 4
  %55 = load ptr, ptr %5, align 8
  %56 = getelementptr inbounds %struct.cli_bc_ctx, ptr %55, i32 0, i32 45
  store i32 %54, ptr %56, align 4
  %57 = load ptr, ptr %5, align 8
  %58 = getelementptr inbounds %struct.cli_bc_ctx, ptr %57, i32 0, i32 44
  %59 = load i32, ptr %58, align 8
  %60 = or i32 %59, 64
  store i32 %60, ptr %58, align 8
  br label %61

61:                                               ; preds = %53, %47, %42
  br label %62

62:                                               ; preds = %61, %31
  store i32 0, ptr %4, align 4
  br label %63

63:                                               ; preds = %62, %18
  %64 = load i32, ptr %4, align 4
  ret i32 %64
}