; Function Attrs: mustprogress nofree norecurse nosync nounwind willreturn memory(write, argmem: readwrite, inaccessiblemem: none) uwtable
define noundef i32 @cli_bcapi_trace_scope(ptr nocapture noundef %0, ptr noundef %1, i32 noundef %2) local_unnamed_addr #8 {
  %4 = getelementptr inbounds i8, ptr %0, i64 1176
  %5 = load i32, ptr %4, align 8
  %.not = icmp eq i32 %5, 0
  br i1 %.not, label %18, label %6

6:                                                ; preds = %3
  %7 = getelementptr inbounds i8, ptr %0, i64 1168
  %8 = load ptr, ptr %7, align 8
  %.not16 = icmp eq ptr %8, %1
  br i1 %.not16, label %12, label %9

9:                                                ; preds = %6
  %.not18 = icmp eq ptr %1, null
  %10 = select i1 %.not18, ptr @.str.23, ptr %1
  store ptr %10, ptr %7, align 8
  %11 = getelementptr inbounds i8, ptr %0, i64 1180
  br label %.sink.split

12:                                               ; preds = %6
  %13 = icmp ugt i32 %5, 2
  br i1 %13, label %14, label %18

14:                                               ; preds = %12
  %15 = getelementptr inbounds i8, ptr %0, i64 1180
  %16 = load i32, ptr %15, align 4
  %.not17 = icmp eq i32 %16, %2
  br i1 %.not17, label %18, label %.sink.split

.sink.split:                                      ; preds = %14, %9
  %.sink = phi ptr [ %11, %9 ], [ %15, %14 ]
  %.sink19 = phi i32 [ 128, %9 ], [ 64, %14 ]
  store i32 %2, ptr %.sink, align 4
  %17 = or i32 %5, %.sink19
  store i32 %17, ptr %4, align 8
  br label %18

18:                                               ; preds = %.sink.split, %14, %12, %3
  ret i32 0
}